; ModuleID = '10/739.c'
source_filename = "10/739.c"
target datalayout = "e-m:e-p270:32:32-p271:32:32-p272:64:64-i64:64-f80:128-n8:16:32:64-S128"
target triple = "x86_64-pc-linux-gnu"

%struct.missile = type { i32, i32 }

@.str = private unnamed_addr constant [3 x i8] c"%d\00", align 1
@a = common dso_local global [25 x %struct.missile] zeroinitializer, align 16

; Function Attrs: noinline nounwind uwtable
define dso_local i32 @main() #0 {
  %1 = alloca i32, align 4
  %2 = alloca i32, align 4
  %3 = alloca i32, align 4
  %4 = alloca i32, align 4
  %5 = alloca i32, align 4
  store i32 0, i32* %1, align 4
  store i32 0, i32* %2, align 4
  store i32 0, i32* %3, align 4
  store i32 0, i32* %4, align 4
  store i32 0, i32* %5, align 4
  %6 = call i32 (i8*, ...) @__isoc99_scanf(i8* getelementptr inbounds ([3 x i8], [3 x i8]* @.str, i64 0, i64 0), i32* %4)
  store i32 0, i32* %2, align 4
  br label %7

7:                                                ; preds = %18, %0
  %8 = load i32, i32* %2, align 4
  %9 = load i32, i32* %4, align 4
  %10 = sub nsw i32 %9, 1
  %11 = icmp sle i32 %8, %10
  br i1 %11, label %12, label %21

12:                                               ; preds = %7
  %13 = load i32, i32* %2, align 4
  %14 = sext i32 %13 to i64
  %15 = getelementptr inbounds [25 x %struct.missile], [25 x %struct.missile]* @a, i64 0, i64 %14
  %16 = getelementptr inbounds %struct.missile, %struct.missile* %15, i32 0, i32 1
  %17 = call i32 (i8*, ...) @__isoc99_scanf(i8* getelementptr inbounds ([3 x i8], [3 x i8]* @.str, i64 0, i64 0), i32* %16)
  br label %18

18:                                               ; preds = %12
  %19 = load i32, i32* %2, align 4
  %20 = add nsw i32 %19, 1
  store i32 %20, i32* %2, align 4
  br label %7

21:                                               ; preds = %7
  %22 = load i32, i32* %4, align 4
  %23 = sub nsw i32 %22, 1
  store i32 %23, i32* %2, align 4
  br label %24

24:                                               ; preds = %30, %21
  %25 = load i32, i32* %2, align 4
  %26 = icmp sge i32 %25, 0
  br i1 %26, label %27, label %33

27:                                               ; preds = %24
  %28 = load i32, i32* %2, align 4
  %29 = load i32, i32* %4, align 4
  call void @f(i32 %28, i32 %29)
  br label %30

30:                                               ; preds = %27
  %31 = load i32, i32* %2, align 4
  %32 = add nsw i32 %31, -1
  store i32 %32, i32* %2, align 4
  br label %24

33:                                               ; preds = %24
  store i32 0, i32* %2, align 4
  br label %34

34:                                               ; preds = %54, %33
  %35 = load i32, i32* %2, align 4
  %36 = load i32, i32* %4, align 4
  %37 = sub nsw i32 %36, 1
  %38 = icmp sle i32 %35, %37
  br i1 %38, label %39, label %57

39:                                               ; preds = %34
  %40 = load i32, i32* %2, align 4
  %41 = sext i32 %40 to i64
  %42 = getelementptr inbounds [25 x %struct.missile], [25 x %struct.missile]* @a, i64 0, i64 %41
  %43 = getelementptr inbounds %struct.missile, %struct.missile* %42, i32 0, i32 0
  %44 = load i32, i32* %43, align 8
  %45 = load i32, i32* %5, align 4
  %46 = icmp sgt i32 %44, %45
  br i1 %46, label %47, label %53

47:                                               ; preds = %39
  %48 = load i32, i32* %2, align 4
  %49 = sext i32 %48 to i64
  %50 = getelementptr inbounds [25 x %struct.missile], [25 x %struct.missile]* @a, i64 0, i64 %49
  %51 = getelementptr inbounds %struct.missile, %struct.missile* %50, i32 0, i32 0
  %52 = load i32, i32* %51, align 8
  store i32 %52, i32* %5, align 4
  br label %53

53:                                               ; preds = %47, %39
  br label %54

54:                                               ; preds = %53
  %55 = load i32, i32* %2, align 4
  %56 = add nsw i32 %55, 1
  store i32 %56, i32* %2, align 4
  br label %34

57:                                               ; preds = %34
  %58 = load i32, i32* %5, align 4
  %59 = call i32 (i8*, ...) @printf(i8* getelementptr inbounds ([3 x i8], [3 x i8]* @.str, i64 0, i64 0), i32 %58)
  %60 = load i32, i32* %1, align 4
  ret i32 %60
}

declare dso_local i32 @__isoc99_scanf(i8*, ...) #1

; Function Attrs: noinline nounwind uwtable
define dso_local void @f(i32 %0, i32 %1) #0 {
  %3 = alloca i32, align 4
  %4 = alloca i32, align 4
  %5 = alloca i32, align 4
  %6 = alloca i32, align 4
  store i32 %0, i32* %3, align 4
  store i32 %1, i32* %4, align 4
  store i32 0, i32* %5, align 4
  store i32 1, i32* %6, align 4
  %7 = load i32, i32* %3, align 4
  %8 = load i32, i32* %4, align 4
  %9 = sub nsw i32 %8, 1
  %10 = icmp eq i32 %7, %9
  br i1 %10, label %11, label %16

11:                                               ; preds = %2
  %12 = load i32, i32* %3, align 4
  %13 = sext i32 %12 to i64
  %14 = getelementptr inbounds [25 x %struct.missile], [25 x %struct.missile]* @a, i64 0, i64 %13
  %15 = getelementptr inbounds %struct.missile, %struct.missile* %14, i32 0, i32 0
  store i32 1, i32* %15, align 8
  br label %70

16:                                               ; preds = %2
  %17 = load i32, i32* %3, align 4
  %18 = sext i32 %17 to i64
  %19 = getelementptr inbounds [25 x %struct.missile], [25 x %struct.missile]* @a, i64 0, i64 %18
  %20 = getelementptr inbounds %struct.missile, %struct.missile* %19, i32 0, i32 0
  store i32 1, i32* %20, align 8
  %21 = load i32, i32* %3, align 4
  %22 = add nsw i32 %21, 1
  store i32 %22, i32* %5, align 4
  br label %23

23:                                               ; preds = %66, %16
  %24 = load i32, i32* %5, align 4
  %25 = load i32, i32* %4, align 4
  %26 = sub nsw i32 %25, 1
  %27 = icmp sle i32 %24, %26
  br i1 %27, label %28, label %69

28:                                               ; preds = %23
  %29 = load i32, i32* %3, align 4
  %30 = sext i32 %29 to i64
  %31 = getelementptr inbounds [25 x %struct.missile], [25 x %struct.missile]* @a, i64 0, i64 %30
  %32 = getelementptr inbounds %struct.missile, %struct.missile* %31, i32 0, i32 1
  %33 = load i32, i32* %32, align 4
  %34 = load i32, i32* %5, align 4
  %35 = sext i32 %34 to i64
  %36 = getelementptr inbounds [25 x %struct.missile], [25 x %struct.missile]* @a, i64 0, i64 %35
  %37 = getelementptr inbounds %struct.missile, %struct.missile* %36, i32 0, i32 1
  %38 = load i32, i32* %37, align 4
  %39 = icmp sge i32 %33, %38
  br i1 %39, label %40, label %65

40:                                               ; preds = %28
  %41 = load i32, i32* %5, align 4
  %42 = sext i32 %41 to i64
  %43 = getelementptr inbounds [25 x %struct.missile], [25 x %struct.missile]* @a, i64 0, i64 %42
  %44 = getelementptr inbounds %struct.missile, %struct.missile* %43, i32 0, i32 0
  %45 = load i32, i32* %44, align 8
  %46 = add nsw i32 %45, 1
  %47 = load i32, i32* %3, align 4
  %48 = sext i32 %47 to i64
  %49 = getelementptr inbounds [25 x %struct.missile], [25 x %struct.missile]* @a, i64 0, i64 %48
  %50 = getelementptr inbounds %struct.missile, %struct.missile* %49, i32 0, i32 0
  %51 = load i32, i32* %50, align 8
  %52 = icmp sgt i32 %46, %51
  br i1 %52, label %53, label %64

53:                                               ; preds = %40
  %54 = load i32, i32* %5, align 4
  %55 = sext i32 %54 to i64
  %56 = getelementptr inbounds [25 x %struct.missile], [25 x %struct.missile]* @a, i64 0, i64 %55
  %57 = getelementptr inbounds %struct.missile, %struct.missile* %56, i32 0, i32 0
  %58 = load i32, i32* %57, align 8
  %59 = add nsw i32 %58, 1
  %60 = load i32, i32* %3, align 4
  %61 = sext i32 %60 to i64
  %62 = getelementptr inbounds [25 x %struct.missile], [25 x %struct.missile]* @a, i64 0, i64 %61
  %63 = getelementptr inbounds %struct.missile, %struct.missile* %62, i32 0, i32 0
  store i32 %59, i32* %63, align 8
  br label %64

64:                                               ; preds = %53, %40
  br label %65

65:                                               ; preds = %64, %28
  br label %66

66:                                               ; preds = %65
  %67 = load i32, i32* %5, align 4
  %68 = add nsw i32 %67, 1
  store i32 %68, i32* %5, align 4
  br label %23

69:                                               ; preds = %23
  br label %70

70:                                               ; preds = %69, %11
  ret void
}

declare dso_local i32 @printf(i8*, ...) #1


!llvm.module.flags = !{!0}
!llvm.ident = !{!1}

!0 = !{i32 1, !"wchar_size", i32 4}
!1 = !{!"clang version 10.0.0-4ubuntu1 "}
